; Function Attrs: nounwind sspstrong uwtable
define internal range(i64 0, 21) i64 @addrinfo_ipv6_p(i64 noundef %0) #0 {
  %2 = tail call ptr @rb_check_typeddata(i64 noundef %0, ptr noundef nonnull @addrinfo_type) #21
  %.not.i = icmp eq ptr %2, null
  br i1 %.not.i, label %3, label %get_addrinfo.exit

3:                                                ; preds = %1
  %4 = load i64, ptr @rb_eTypeError, align 8, !tbaa !35
  tail call void (i64, ptr, ...) @rb_raise(i64 noundef %4, ptr noundef nonnull @.str.101) #23
  unreachable

get_addrinfo.exit:                                ; preds = %1
  %5 = getelementptr inbounds nuw i8, ptr %2, i64 28
  %6 = load i32, ptr %5, align 4, !tbaa !118
  %7 = icmp ugt i32 %6, 1
  br i1 %7, label %ai_get_afamily.exit, label %ai_get_afamily.exit.thread

ai_get_afamily.exit:                              ; preds = %get_addrinfo.exit
  %8 = getelementptr inbounds nuw i8, ptr %2, i64 32
  %9 = load i16, ptr %8, align 2, !tbaa !91
  %.fr = freeze i16 %9
  %10 = icmp eq i16 %.fr, 10
  %spec.select = select i1 %10, i64 20, i64 0
  br label %ai_get_afamily.exit.thread

ai_get_afamily.exit.thread:                       ; preds = %ai_get_afamily.exit, %get_addrinfo.exit
  %11 = phi i64 [ 0, %get_addrinfo.exit ], [ %spec.select, %ai_get_afamily.exit ]
  ret i64 %11
}